; Function Attrs: nounwind uwtable
define internal void @roller_value_observer_cb(ptr noundef readonly captures(none) %0, ptr noundef readonly captures(none) %1) #0 {
  %3 = getelementptr inbounds nuw i8, ptr %0, i64 16
  %4 = load ptr, ptr %3, align 8, !tbaa !14
  %5 = tail call i32 @lv_roller_get_selected(ptr noundef %4) #9
  %6 = getelementptr inbounds nuw i8, ptr %1, i64 24
  %7 = load i32, ptr %6, align 8, !tbaa !3
  %.not = icmp eq i32 %5, %7
  br i1 %.not, label %10, label %8

8:                                                ; preds = %2
  %9 = load ptr, ptr %3, align 8, !tbaa !14
  tail call void @lv_roller_set_selected(ptr noundef %9, i32 noundef %7, i1 noundef zeroext false) #9
  br label %10

10:                                               ; preds = %8, %2
  ret void
}